target datalayout = "e-m:e-p270:32:32-p271:32:32-p272:64:64-i64:64-i128:128-f80:128-n8:16:32:64-S128"
target triple = "x86_64-unknown-linux-gnu"

%"class.icu_75::UObject" = type { ptr }
%"class.icu_75::UnicodeString" = type { %"class.icu_75::Replaceable", %"union.icu_75::UnicodeString::StackBufferOrFields" }
%"class.icu_75::Replaceable" = type { %"class.icu_75::UObject" }
%"union.icu_75::UnicodeString::StackBufferOrFields" = type { %struct.anon.0, [32 x i8] }
%struct.anon.0 = type { i16, i32, i32, ptr }
%"class.icu_75::ConstChar16Ptr" = type { ptr }

@_ZN6icu_7517RuleBasedCollatorC1Ev = unnamed_addr alias void (ptr), ptr @_ZN6icu_7517RuleBasedCollatorC2Ev

; Function Attrs: mustprogress nounwind uwtable
define linkonce_odr noundef ptr @_ZN6icu_758Collator11toUCollatorEv(ptr noundef nonnull align 8 dereferenceable(8) %this) #3 comdat align 2 {
entry:
  %this.addr = alloca ptr, align 8
  store ptr %this, ptr %this.addr, align 8
  %this1 = load ptr, ptr %this.addr, align 8
  ret ptr %this1
}

; Function Attrs: mustprogress nounwind uwtable
define linkonce_odr void @_ZN6icu_7514ConstChar16PtrD2Ev(ptr noundef nonnull align 8 dereferenceable(8) %this) unnamed_addr #3 comdat align 2 {
entry:
  %this.addr = alloca ptr, align 8
  store ptr %this, ptr %this.addr, align 8
  %this1 = load ptr, ptr %this.addr, align 8
  %p_ = getelementptr inbounds %"class.icu_75::ConstChar16Ptr", ptr %this1, i32 0, i32 0
  %0 = load ptr, ptr %p_, align 8
  call void asm sideeffect "", "rm,~{memory},~{dirflag},~{fpsr},~{flags}"(ptr %0) #6, !srcloc !29
  ret void
}

; Function Attrs: mustprogress nounwind uwtable
define linkonce_odr void @_ZN6icu_7514ConstChar16PtrC2EPKDs(ptr noundef nonnull align 8 dereferenceable(8) %this, ptr noundef %p) unnamed_addr #3 comdat align 2 {
entry:
  %this.addr = alloca ptr, align 8
  %p.addr = alloca ptr, align 8
  store ptr %this, ptr %this.addr, align 8
  store ptr %p, ptr %p.addr, align 8
  %this1 = load ptr, ptr %this.addr, align 8
  %p_ = getelementptr inbounds %"class.icu_75::ConstChar16Ptr", ptr %this1, i32 0, i32 0
  %0 = load ptr, ptr %p.addr, align 8
  store ptr %0, ptr %p_, align 8
  ret void
}

; Function Attrs: mustprogress nounwind uwtable
define internal noundef signext i8 @_ZL9U_FAILURE10UErrorCode(i32 noundef %code) #3 {
entry:
  %code.addr = alloca i32, align 4
  store i32 %code, ptr %code.addr, align 4
  %0 = load i32, ptr %code.addr, align 4
  %cmp = icmp sgt i32 %0, 0
  %conv = zext i1 %cmp to i8
  ret i8 %conv
}

; Function Attrs: mustprogress uwtable
define ptr @ucol_openRules_75(ptr noundef %rules, i32 noundef %rulesLength, i32 noundef %normalizationMode, i32 noundef %strength, ptr noundef %parseError, ptr noundef %pErrorCode) #0 personality ptr @__gxx_personality_v0 {
entry:
  %retval = alloca ptr, align 8
  %rules.addr = alloca ptr, align 8
  %rulesLength.addr = alloca i32, align 4
  %normalizationMode.addr = alloca i32, align 4
  %strength.addr = alloca i32, align 4
  %parseError.addr = alloca ptr, align 8
  %pErrorCode.addr = alloca ptr, align 8
  %coll = alloca ptr, align 8
  %saved-rvalue = alloca ptr, align 8
  %cleanup.cond = alloca i1, align 1
  %exn.slot = alloca ptr, align 8
  %ehselector.slot = alloca i32, align 4
  %r = alloca %"class.icu_75::UnicodeString", align 8
  %agg.tmp = alloca %"class.icu_75::ConstChar16Ptr", align 8
  %cleanup.dest.slot = alloca i32, align 4
  store ptr %rules, ptr %rules.addr, align 8
  store i32 %rulesLength, ptr %rulesLength.addr, align 4
  store i32 %normalizationMode, ptr %normalizationMode.addr, align 4
  store i32 %strength, ptr %strength.addr, align 4
  store ptr %parseError, ptr %parseError.addr, align 8
  store ptr %pErrorCode, ptr %pErrorCode.addr, align 8
  %0 = load ptr, ptr %pErrorCode.addr, align 8
  %1 = load i32, ptr %0, align 4
  %call = call noundef signext i8 @_ZL9U_FAILURE10UErrorCode(i32 noundef %1)
  %tobool = icmp ne i8 %call, 0
  br i1 %tobool, label %if.then, label %if.end

if.then:                                          ; preds = %entry
  store ptr null, ptr %retval, align 8
  br label %return

if.end:                                           ; preds = %entry
  %2 = load ptr, ptr %rules.addr, align 8
  %cmp = icmp eq ptr %2, null
  br i1 %cmp, label %land.lhs.true, label %if.end3

land.lhs.true:                                    ; preds = %if.end
  %3 = load i32, ptr %rulesLength.addr, align 4
  %cmp1 = icmp ne i32 %3, 0
  br i1 %cmp1, label %if.then2, label %if.end3

if.then2:                                         ; preds = %land.lhs.true
  %4 = load ptr, ptr %pErrorCode.addr, align 8
  store i32 1, ptr %4, align 4
  store ptr null, ptr %retval, align 8
  br label %return

if.end3:                                          ; preds = %land.lhs.true, %if.end
  %call4 = call noundef ptr @_ZN6icu_757UMemorynwEm(i64 noundef 272) #6
  %new.isnull = icmp eq ptr %call4, null
  store i1 false, ptr %cleanup.cond, align 1
  br i1 %new.isnull, label %new.cont, label %new.notnull

new.notnull:                                      ; preds = %if.end3
  store ptr %call4, ptr %saved-rvalue, align 8
  store i1 true, ptr %cleanup.cond, align 1
  invoke void @_ZN6icu_7517RuleBasedCollatorC1Ev(ptr noundef nonnull align 8 dereferenceable(272) %call4)
          to label %invoke.cont unwind label %lpad

invoke.cont:                                      ; preds = %new.notnull
  br label %new.cont

new.cont:                                         ; preds = %invoke.cont, %if.end3
  %5 = phi ptr [ %call4, %invoke.cont ], [ null, %if.end3 ]
  store ptr %5, ptr %coll, align 8
  %6 = load ptr, ptr %coll, align 8
  %cmp5 = icmp eq ptr %6, null
  br i1 %cmp5, label %if.then6, label %if.end7

if.then6:                                         ; preds = %new.cont
  %7 = load ptr, ptr %pErrorCode.addr, align 8
  store i32 7, ptr %7, align 4
  store ptr null, ptr %retval, align 8
  br label %return

lpad:                                             ; preds = %new.notnull
  %8 = landingpad { ptr, i32 }
          cleanup
  %9 = extractvalue { ptr, i32 } %8, 0
  store ptr %9, ptr %exn.slot, align 8
  %10 = extractvalue { ptr, i32 } %8, 1
  store i32 %10, ptr %ehselector.slot, align 4
  %cleanup.is_active = load i1, ptr %cleanup.cond, align 1
  br i1 %cleanup.is_active, label %cleanup.action, label %cleanup.done

cleanup.action:                                   ; preds = %lpad
  %11 = load ptr, ptr %saved-rvalue, align 8
  call void @_ZN6icu_757UMemorydlEPv(ptr noundef %11) #6
  br label %cleanup.done

cleanup.done:                                     ; preds = %cleanup.action, %lpad
  br label %eh.resume

if.end7:                                          ; preds = %new.cont
  %12 = load i32, ptr %rulesLength.addr, align 4
  %cmp8 = icmp slt i32 %12, 0
  %conv = zext i1 %cmp8 to i8
  %13 = load ptr, ptr %rules.addr, align 8
  call void @_ZN6icu_7514ConstChar16PtrC2EPKDs(ptr noundef nonnull align 8 dereferenceable(8) %agg.tmp, ptr noundef %13)
  %14 = load i32, ptr %rulesLength.addr, align 4
  invoke void @_ZN6icu_7513UnicodeStringC1EaNS_14ConstChar16PtrEi(ptr noundef nonnull align 8 dereferenceable(64) %r, i8 noundef signext %conv, ptr noundef %agg.tmp, i32 noundef %14)
          to label %invoke.cont10 unwind label %lpad9

invoke.cont10:                                    ; preds = %if.end7
  call void @_ZN6icu_7514ConstChar16PtrD2Ev(ptr noundef nonnull align 8 dereferenceable(8) %agg.tmp) #6
  %15 = load ptr, ptr %coll, align 8
  %16 = load i32, ptr %strength.addr, align 4
  %17 = load i32, ptr %normalizationMode.addr, align 4
  %18 = load ptr, ptr %parseError.addr, align 8
  %19 = load ptr, ptr %pErrorCode.addr, align 8
  invoke void @_ZN6icu_7517RuleBasedCollator22internalBuildTailoringERKNS_13UnicodeStringEi18UColAttributeValueP11UParseErrorPS1_R10UErrorCode(ptr noundef nonnull align 8 dereferenceable(272) %15, ptr noundef nonnull align 8 dereferenceable(64) %r, i32 noundef %16, i32 noundef %17, ptr noundef %18, ptr noundef null, ptr noundef nonnull align 4 dereferenceable(4) %19)
          to label %invoke.cont12 unwind label %lpad11

invoke.cont12:                                    ; preds = %invoke.cont10
  %20 = load ptr, ptr %pErrorCode.addr, align 8
  %21 = load i32, ptr %20, align 4
  %call14 = invoke noundef signext i8 @_ZL9U_FAILURE10UErrorCode(i32 noundef %21)
          to label %invoke.cont13 unwind label %lpad11

invoke.cont13:                                    ; preds = %invoke.cont12
  %tobool15 = icmp ne i8 %call14, 0
  br i1 %tobool15, label %if.then16, label %if.end17

if.then16:                                        ; preds = %invoke.cont13
  %22 = load ptr, ptr %coll, align 8
  %isnull = icmp eq ptr %22, null
  br i1 %isnull, label %delete.end, label %delete.notnull

delete.notnull:                                   ; preds = %if.then16
  call void @_ZN6icu_7517RuleBasedCollatorD1Ev(ptr noundef nonnull align 8 dereferenceable(272) %22) #6
  call void @_ZN6icu_757UMemorydlEPv(ptr noundef %22) #6
  br label %delete.end

delete.end:                                       ; preds = %delete.notnull, %if.then16
  store ptr null, ptr %retval, align 8
  store i32 1, ptr %cleanup.dest.slot, align 4
  br label %cleanup

lpad9:                                            ; preds = %if.end7
  %23 = landingpad { ptr, i32 }
          cleanup
  %24 = extractvalue { ptr, i32 } %23, 0
  store ptr %24, ptr %exn.slot, align 8
  %25 = extractvalue { ptr, i32 } %23, 1
  store i32 %25, ptr %ehselector.slot, align 4
  call void @_ZN6icu_7514ConstChar16PtrD2Ev(ptr noundef nonnull align 8 dereferenceable(8) %agg.tmp) #6
  br label %eh.resume

lpad11:                                           ; preds = %if.end17, %invoke.cont12, %invoke.cont10
  %26 = landingpad { ptr, i32 }
          cleanup
  %27 = extractvalue { ptr, i32 } %26, 0
  store ptr %27, ptr %exn.slot, align 8
  %28 = extractvalue { ptr, i32 } %26, 1
  store i32 %28, ptr %ehselector.slot, align 4
  call void @_ZN6icu_7513UnicodeStringD1Ev(ptr noundef nonnull align 8 dereferenceable(64) %r) #6
  br label %eh.resume

if.end17:                                         ; preds = %invoke.cont13
  %29 = load ptr, ptr %coll, align 8
  %call19 = invoke noundef ptr @_ZN6icu_758Collator11toUCollatorEv(ptr noundef nonnull align 8 dereferenceable(8) %29)
          to label %invoke.cont18 unwind label %lpad11

invoke.cont18:                                    ; preds = %if.end17
  store ptr %call19, ptr %retval, align 8
  store i32 1, ptr %cleanup.dest.slot, align 4
  br label %cleanup

cleanup:                                          ; preds = %invoke.cont18, %delete.end
  call void @_ZN6icu_7513UnicodeStringD1Ev(ptr noundef nonnull align 8 dereferenceable(64) %r) #6
  br label %return

return:                                           ; preds = %cleanup, %if.then6, %if.then2, %if.then
  %30 = load ptr, ptr %retval, align 8
  ret ptr %30

eh.resume:                                        ; preds = %lpad11, %lpad9, %cleanup.done
  %exn = load ptr, ptr %exn.slot, align 8
  %sel = load i32, ptr %ehselector.slot, align 4
  %lpad.val = insertvalue { ptr, i32 } poison, ptr %exn, 0
  %lpad.val20 = insertvalue { ptr, i32 } %lpad.val, i32 %sel, 1
  resume { ptr, i32 } %lpad.val20
}