; Function Attrs: mustprogress uwtable
define noundef ptr @ucol_openRules_75(ptr noundef %rules, i32 noundef %rulesLength, i32 noundef %normalizationMode, i32 noundef %strength, ptr noundef %parseError, ptr noundef %pErrorCode) local_unnamed_addr #0 personality ptr @__gxx_personality_v0 {
entry:
  %r = alloca %"class.icu_75::UnicodeString", align 8
  %agg.tmp = alloca %"class.icu_75::ConstChar16Ptr", align 8
  %0 = load i32, ptr %pErrorCode, align 4
  %cmp.i = icmp slt i32 %0, 1
  br i1 %cmp.i, label %if.end, label %return

if.end:                                           ; preds = %entry
  %cmp = icmp eq ptr %rules, null
  %cmp1 = icmp ne i32 %rulesLength, 0
  %or.cond = and i1 %cmp, %cmp1
  br i1 %or.cond, label %if.then2, label %if.end3

if.then2:                                         ; preds = %if.end
  store i32 1, ptr %pErrorCode, align 4
  br label %return

if.end3:                                          ; preds = %if.end
  %call4 = tail call noundef ptr @_ZN6icu_757UMemorynwEm(i64 noundef 272) #12
  %new.isnull = icmp eq ptr %call4, null
  br i1 %new.isnull, label %if.then6, label %new.notnull

new.notnull:                                      ; preds = %if.end3
  invoke void @_ZN6icu_7517RuleBasedCollatorC1Ev(ptr noundef nonnull align 8 dereferenceable(272) %call4)
          to label %if.end7 unwind label %lpad

if.then6:                                         ; preds = %if.end3
  store i32 7, ptr %pErrorCode, align 4
  br label %return

lpad:                                             ; preds = %new.notnull
  %1 = landingpad { ptr, i32 }
          cleanup
  tail call void @_ZN6icu_757UMemorydlEPv(ptr noundef nonnull %call4) #12
  br label %eh.resume

if.end7:                                          ; preds = %new.notnull
  %rulesLength.lobit = lshr i32 %rulesLength, 31
  %conv = trunc i32 %rulesLength.lobit to i8
  store ptr %rules, ptr %agg.tmp, align 8
  invoke void @_ZN6icu_7513UnicodeStringC1EaNS_14ConstChar16PtrEi(ptr noundef nonnull align 8 dereferenceable(64) %r, i8 noundef signext %conv, ptr noundef nonnull %agg.tmp, i32 noundef %rulesLength)
          to label %invoke.cont10 unwind label %lpad9

invoke.cont10:                                    ; preds = %if.end7
  %2 = load ptr, ptr %agg.tmp, align 8
  call void asm sideeffect "", "rm,~{memory},~{dirflag},~{fpsr},~{flags}"(ptr %2) #12, !srcloc !8
  invoke void @_ZN6icu_7517RuleBasedCollator22internalBuildTailoringERKNS_13UnicodeStringEi18UColAttributeValueP11UParseErrorPS1_R10UErrorCode(ptr noundef nonnull align 8 dereferenceable(272) %call4, ptr noundef nonnull align 8 dereferenceable(64) %r, i32 noundef %strength, i32 noundef %normalizationMode, ptr noundef %parseError, ptr noundef null, ptr noundef nonnull align 4 dereferenceable(4) %pErrorCode)
          to label %invoke.cont12 unwind label %lpad11

invoke.cont12:                                    ; preds = %invoke.cont10
  %3 = load i32, ptr %pErrorCode, align 4
  %cmp.i12 = icmp slt i32 %3, 1
  br i1 %cmp.i12, label %cleanup, label %delete.notnull

delete.notnull:                                   ; preds = %invoke.cont12
  call void @_ZN6icu_7517RuleBasedCollatorD1Ev(ptr noundef nonnull align 8 dereferenceable(272) %call4) #12
  call void @_ZN6icu_757UMemorydlEPv(ptr noundef nonnull %call4) #12
  br label %cleanup

lpad9:                                            ; preds = %if.end7
  %4 = landingpad { ptr, i32 }
          cleanup
  %5 = load ptr, ptr %agg.tmp, align 8
  call void asm sideeffect "", "rm,~{memory},~{dirflag},~{fpsr},~{flags}"(ptr %5) #12, !srcloc !8
  br label %eh.resume

lpad11:                                           ; preds = %invoke.cont10
  %6 = landingpad { ptr, i32 }
          cleanup
  call void @_ZN6icu_7513UnicodeStringD1Ev(ptr noundef nonnull align 8 dereferenceable(64) %r) #12
  br label %eh.resume

cleanup:                                          ; preds = %invoke.cont12, %delete.notnull
  %retval.0 = phi ptr [ null, %delete.notnull ], [ %call4, %invoke.cont12 ]
  call void @_ZN6icu_7513UnicodeStringD1Ev(ptr noundef nonnull align 8 dereferenceable(64) %r) #12
  br label %return

return:                                           ; preds = %entry, %cleanup, %if.then6, %if.then2
  %retval.1 = phi ptr [ null, %if.then2 ], [ null, %if.then6 ], [ %retval.0, %cleanup ], [ null, %entry ]
  ret ptr %retval.1

eh.resume:                                        ; preds = %lpad, %lpad11, %lpad9
  %.pn = phi { ptr, i32 } [ %6, %lpad11 ], [ %4, %lpad9 ], [ %1, %lpad ]
  resume { ptr, i32 } %.pn
}